target datalayout = "e-m:e-p270:32:32-p271:32:32-p272:64:64-i64:64-i128:128-f80:128-n8:16:32:64-S128"
target triple = "x86_64-pc-linux-gnu"

; Function Attrs: nounwind uwtable
define internal ptr @hb_ft_reference_table_(ptr noundef %0, i32 noundef %1, ptr noundef %2) #0 {
  %4 = alloca ptr, align 8
  %5 = alloca ptr, align 8
  %6 = alloca i32, align 4
  %7 = alloca ptr, align 8
  %8 = alloca ptr, align 8
  %9 = alloca ptr, align 8
  %10 = alloca i64, align 8
  %11 = alloca i32, align 4
  %12 = alloca i32, align 4
  store ptr %0, ptr %5, align 8, !tbaa !131
  store i32 %1, ptr %6, align 4, !tbaa !43
  store ptr %2, ptr %7, align 8, !tbaa !153
  call void @llvm.lifetime.start.p0(i64 8, ptr %8) #10
  %13 = load ptr, ptr %7, align 8, !tbaa !153
  store ptr %13, ptr %8, align 8, !tbaa !8
  call void @llvm.lifetime.start.p0(i64 8, ptr %9) #10
  call void @llvm.lifetime.start.p0(i64 8, ptr %10) #10
  store i64 0, ptr %10, align 8, !tbaa !42
  call void @llvm.lifetime.start.p0(i64 4, ptr %11) #10
  %14 = load ptr, ptr %5, align 8, !tbaa !131
  store ptr %14, ptr %5, align 8, !tbaa !131
  %15 = load ptr, ptr %8, align 8, !tbaa !8
  %16 = load i32, ptr %6, align 4, !tbaa !43
  %17 = zext i32 %16 to i64
  %18 = call i32 @FT_Load_Sfnt_Table(ptr noundef %15, i64 noundef %17, i64 noundef 0, ptr noundef null, ptr noundef %10)
  store i32 %18, ptr %11, align 4, !tbaa !43
  %19 = load i32, ptr %11, align 4, !tbaa !43
  %20 = icmp ne i32 %19, 0
  br i1 %20, label %21, label %22

21:                                               ; preds = %3
  store ptr null, ptr %4, align 8
  store i32 1, ptr %12, align 4
  br label %44

22:                                               ; preds = %3
  %23 = load i64, ptr %10, align 8, !tbaa !42
  %24 = call noalias ptr @malloc(i64 noundef %23) #11
  store ptr %24, ptr %9, align 8, !tbaa !123
  %25 = load ptr, ptr %9, align 8, !tbaa !123
  %26 = icmp ne ptr %25, null
  br i1 %26, label %28, label %27

27:                                               ; preds = %22
  store ptr null, ptr %4, align 8
  store i32 1, ptr %12, align 4
  br label %44

28:                                               ; preds = %22
  %29 = load ptr, ptr %8, align 8, !tbaa !8
  %30 = load i32, ptr %6, align 4, !tbaa !43
  %31 = zext i32 %30 to i64
  %32 = load ptr, ptr %9, align 8, !tbaa !123
  %33 = call i32 @FT_Load_Sfnt_Table(ptr noundef %29, i64 noundef %31, i64 noundef 0, ptr noundef %32, ptr noundef %10)
  store i32 %33, ptr %11, align 4, !tbaa !43
  %34 = load i32, ptr %11, align 4, !tbaa !43
  %35 = icmp ne i32 %34, 0
  br i1 %35, label %36, label %38

36:                                               ; preds = %28
  %37 = load ptr, ptr %9, align 8, !tbaa !123
  call void @free(ptr noundef %37) #10
  store ptr null, ptr %4, align 8
  store i32 1, ptr %12, align 4
  br label %44

38:                                               ; preds = %28
  %39 = load ptr, ptr %9, align 8, !tbaa !123
  %40 = load i64, ptr %10, align 8, !tbaa !42
  %41 = trunc i64 %40 to i32
  %42 = load ptr, ptr %9, align 8, !tbaa !123
  %43 = call ptr @hb_blob_create(ptr noundef %39, i32 noundef %41, i32 noundef 2, ptr noundef %42, ptr noundef @free)
  store ptr %43, ptr %4, align 8
  store i32 1, ptr %12, align 4
  br label %44

44:                                               ; preds = %38, %36, %27, %21
  call void @llvm.lifetime.end.p0(i64 4, ptr %11) #10
  call void @llvm.lifetime.end.p0(i64 8, ptr %10) #10
  call void @llvm.lifetime.end.p0(i64 8, ptr %9) #10
  call void @llvm.lifetime.end.p0(i64 8, ptr %8) #10
  %45 = load ptr, ptr %4, align 8
  ret ptr %45
}