; Function Attrs: nounwind uwtable
define internal ptr @hb_ft_reference_table_(ptr readnone captures(none) %0, i32 noundef %1, ptr noundef %2) #0 {
  %4 = alloca i64, align 8
  call void @llvm.lifetime.start.p0(i64 8, ptr nonnull %4) #20
  store i64 0, ptr %4, align 8, !tbaa !60
  %5 = zext i32 %1 to i64
  %6 = call i32 @FT_Load_Sfnt_Table(ptr noundef %2, i64 noundef %5, i64 noundef 0, ptr noundef null, ptr noundef nonnull %4) #20
  %.not = icmp eq i32 %6, 0
  br i1 %.not, label %7, label %17

7:                                                ; preds = %3
  %8 = load i64, ptr %4, align 8, !tbaa !60
  %9 = call noalias ptr @malloc(i64 noundef %8) #21
  %.not14 = icmp eq ptr %9, null
  br i1 %.not14, label %17, label %10

10:                                               ; preds = %7
  %11 = call i32 @FT_Load_Sfnt_Table(ptr noundef %2, i64 noundef %5, i64 noundef 0, ptr noundef nonnull %9, ptr noundef nonnull %4) #20
  %.not15 = icmp eq i32 %11, 0
  br i1 %.not15, label %13, label %12

12:                                               ; preds = %10
  call void @free(ptr noundef nonnull %9) #20
  br label %17

13:                                               ; preds = %10
  %14 = load i64, ptr %4, align 8, !tbaa !60
  %15 = trunc i64 %14 to i32
  %16 = call ptr @hb_blob_create(ptr noundef nonnull %9, i32 noundef %15, i32 noundef 2, ptr noundef nonnull %9, ptr noundef nonnull @free) #20
  br label %17

17:                                               ; preds = %7, %3, %13, %12
  %.0 = phi ptr [ null, %12 ], [ %16, %13 ], [ null, %3 ], [ null, %7 ]
  call void @llvm.lifetime.end.p0(i64 8, ptr nonnull %4) #20
  ret ptr %.0
}